; Function Attrs: mustprogress uwtable
define void @_ZN2cv3dnn14dnn4_v202412233Net8setInputERKNS_11_InputArrayERKNSt7__cxx1112basic_stringIcSt11char_traitsIcESaIcEEEdRKNS_7Scalar_IdEE(ptr noundef nonnull readonly align 8 captures(none) dereferenceable(16) %0, ptr noundef nonnull align 8 dereferenceable(24) %1, ptr noundef nonnull align 8 dereferenceable(32) %2, double noundef %3, ptr noundef nonnull align 8 dereferenceable(32) %4) local_unnamed_addr #3 align 2 personality ptr @__gxx_personality_v0 {
  %6 = alloca %"class.cv::utils::trace::details::Region", align 8
  %7 = alloca %"class.std::__cxx11::basic_string", align 8
  %8 = alloca %"class.std::allocator", align 1
  call void @llvm.lifetime.start.p0(i64 16, ptr nonnull %6) #21
  call void @_ZN2cv5utils5trace7details6RegionC1ERKNS3_21LocationStaticStorageE(ptr noundef nonnull align 8 dereferenceable(12) %6, ptr noundef nonnull align 8 dereferenceable(32) @_ZZN2cv3dnn14dnn4_v202412233Net8setInputERKNS_11_InputArrayERKNSt7__cxx1112basic_stringIcSt11char_traitsIcESaIcEEEdRKNS_7Scalar_IdEEE25__cv_trace_location_fn177)
  %9 = load ptr, ptr %6, align 8, !tbaa !24
  %.not = icmp eq ptr %9, null
  br i1 %.not, label %14, label %10

10:                                               ; preds = %5
  %11 = load ptr, ptr %2, align 8, !tbaa !27
  invoke void @_ZN2cv5utils5trace7details8traceArgERKNS2_8TraceArgEPKc(ptr noundef nonnull align 8 dereferenceable(24) @_ZZN2cv3dnn14dnn4_v202412233Net8setInputERKNS_11_InputArrayERKNSt7__cxx1112basic_stringIcSt11char_traitsIcESaIcEEEdRKNS_7Scalar_IdEEE22__cv_trace_arg_name178, ptr noundef %11)
          to label %14 unwind label %12

12:                                               ; preds = %29, %10
  %13 = landingpad { ptr, i32 }
          cleanup
  br label %40

14:                                               ; preds = %5, %10
  %15 = load ptr, ptr %0, align 8, !tbaa !17
  %.not12 = icmp eq ptr %15, null
  br i1 %.not12, label %16, label %29

16:                                               ; preds = %14
  call void @llvm.lifetime.start.p0(i64 32, ptr nonnull %7) #21
  call void @llvm.lifetime.start.p0(i64 1, ptr nonnull %8) #21
  invoke void @_ZNSt7__cxx1112basic_stringIcSt11char_traitsIcESaIcEEC2EPKcRKS3_(ptr noundef nonnull align 8 dereferenceable(32) %7, ptr noundef nonnull @.str.2, ptr noundef nonnull align 1 dereferenceable(1) %8)
          to label %17 unwind label %19

17:                                               ; preds = %16
  invoke void @_ZN2cv5errorEiRKNSt7__cxx1112basic_stringIcSt11char_traitsIcESaIcEEEPKcS9_i(i32 noundef -215, ptr noundef nonnull align 8 dereferenceable(32) %7, ptr noundef nonnull @__func__._ZN2cv3dnn14dnn4_v202412233Net8setInputERKNS_11_InputArrayERKNSt7__cxx1112basic_stringIcSt11char_traitsIcESaIcEEEdRKNS_7Scalar_IdEE, ptr noundef nonnull @.str.1, i32 noundef 179) #22
          to label %18 unwind label %21

18:                                               ; preds = %17
  unreachable

19:                                               ; preds = %16
  %20 = landingpad { ptr, i32 }
          cleanup
  br label %_ZNSt7__cxx1112basic_stringIcSt11char_traitsIcESaIcEED2Ev.exit

21:                                               ; preds = %17
  %22 = landingpad { ptr, i32 }
          cleanup
  %23 = load ptr, ptr %7, align 8, !tbaa !27
  %24 = getelementptr inbounds nuw i8, ptr %7, i64 16
  %25 = icmp eq ptr %23, %24
  br i1 %25, label %_ZNKSt7__cxx1112basic_stringIcSt11char_traitsIcESaIcEE11_M_is_localEv.exit.thread.i.i, label %_ZNKSt7__cxx1112basic_stringIcSt11char_traitsIcESaIcEE11_M_is_localEv.exit.i.i

_ZNKSt7__cxx1112basic_stringIcSt11char_traitsIcESaIcEE11_M_is_localEv.exit.thread.i.i: ; preds = %21
  %26 = getelementptr inbounds nuw i8, ptr %7, i64 8
  %27 = load i64, ptr %26, align 8, !tbaa !32
  %28 = icmp ult i64 %27, 16
  call void @llvm.assume(i1 %28)
  br label %_ZNSt7__cxx1112basic_stringIcSt11char_traitsIcESaIcEED2Ev.exit

_ZNKSt7__cxx1112basic_stringIcSt11char_traitsIcESaIcEE11_M_is_localEv.exit.i.i: ; preds = %21
  call void @_ZdlPv(ptr noundef %23) #20
  br label %_ZNSt7__cxx1112basic_stringIcSt11char_traitsIcESaIcEED2Ev.exit

_ZNSt7__cxx1112basic_stringIcSt11char_traitsIcESaIcEED2Ev.exit: ; preds = %_ZNKSt7__cxx1112basic_stringIcSt11char_traitsIcESaIcEE11_M_is_localEv.exit.i.i, %_ZNKSt7__cxx1112basic_stringIcSt11char_traitsIcESaIcEE11_M_is_localEv.exit.thread.i.i, %19
  %.pn = phi { ptr, i32 } [ %20, %19 ], [ %22, %_ZNKSt7__cxx1112basic_stringIcSt11char_traitsIcESaIcEE11_M_is_localEv.exit.thread.i.i ], [ %22, %_ZNKSt7__cxx1112basic_stringIcSt11char_traitsIcESaIcEE11_M_is_localEv.exit.i.i ]
  call void @llvm.lifetime.end.p0(i64 1, ptr nonnull %8) #21
  call void @llvm.lifetime.end.p0(i64 32, ptr nonnull %7) #21
  br label %40

29:                                               ; preds = %14
  %30 = load ptr, ptr %15, align 8, !tbaa !15
  %31 = getelementptr inbounds nuw i8, ptr %30, i64 72
  %32 = load ptr, ptr %31, align 8
  invoke void %32(ptr noundef nonnull align 8 dereferenceable(504) %15, ptr noundef nonnull align 8 dereferenceable(24) %1, ptr noundef nonnull align 8 dereferenceable(32) %2, double noundef %3, ptr noundef nonnull align 8 dereferenceable(32) %4)
          to label %33 unwind label %12

33:                                               ; preds = %29
  %34 = getelementptr inbounds nuw i8, ptr %6, i64 8
  %35 = load i32, ptr %34, align 8, !tbaa !33
  %.not.i = icmp eq i32 %35, 0
  br i1 %.not.i, label %_ZN2cv5utils5trace7details6RegionD2Ev.exit, label %36

36:                                               ; preds = %33
  invoke void @_ZN2cv5utils5trace7details6Region7destroyEv(ptr noundef nonnull align 8 dereferenceable(12) %6)
          to label %_ZN2cv5utils5trace7details6RegionD2Ev.exit unwind label %37

37:                                               ; preds = %36
  %38 = landingpad { ptr, i32 }
          catch ptr null
  %39 = extractvalue { ptr, i32 } %38, 0
  call void @__clang_call_terminate(ptr %39) #23
  unreachable

_ZN2cv5utils5trace7details6RegionD2Ev.exit:       ; preds = %33, %36
  call void @llvm.lifetime.end.p0(i64 16, ptr nonnull %6) #21
  ret void

40:                                               ; preds = %_ZNSt7__cxx1112basic_stringIcSt11char_traitsIcESaIcEED2Ev.exit, %12
  %.pn10 = phi { ptr, i32 } [ %13, %12 ], [ %.pn, %_ZNSt7__cxx1112basic_stringIcSt11char_traitsIcESaIcEED2Ev.exit ]
  call void @_ZN2cv5utils5trace7details6RegionD2Ev(ptr noundef nonnull align 8 dereferenceable(12) %6) #21
  call void @llvm.lifetime.end.p0(i64 16, ptr nonnull %6) #21
  resume { ptr, i32 } %.pn10
}